target datalayout = "e-m:e-p270:32:32-p271:32:32-p272:64:64-i64:64-i128:128-f80:128-n8:16:32:64-S128"
target triple = "x86_64-pc-linux-gnu"

%struct.nghttp2_frame_hd = type { i64, i32, i8, i8, i8 }
%struct.nghttp2_ping = type { %struct.nghttp2_frame_hd, [8 x i8] }

; Function Attrs: nounwind uwtable
define hidden void @nghttp2_frame_hd_init(ptr noundef %0, i64 noundef %1, i8 noundef zeroext %2, i8 noundef zeroext %3, i32 noundef %4) #0 {
  %6 = alloca ptr, align 8
  %7 = alloca i64, align 8
  %8 = alloca i8, align 1
  %9 = alloca i8, align 1
  %10 = alloca i32, align 4
  store ptr %0, ptr %6, align 8, !tbaa !8
  store i64 %1, ptr %7, align 8, !tbaa !18
  store i8 %2, ptr %8, align 1, !tbaa !14
  store i8 %3, ptr %9, align 1, !tbaa !14
  store i32 %4, ptr %10, align 4, !tbaa !19
  %11 = load i64, ptr %7, align 8, !tbaa !18
  %12 = load ptr, ptr %6, align 8, !tbaa !8
  %13 = getelementptr inbounds nuw %struct.nghttp2_frame_hd, ptr %12, i32 0, i32 0
  store i64 %11, ptr %13, align 8, !tbaa !9
  %14 = load i8, ptr %8, align 1, !tbaa !14
  %15 = load ptr, ptr %6, align 8, !tbaa !8
  %16 = getelementptr inbounds nuw %struct.nghttp2_frame_hd, ptr %15, i32 0, i32 2
  store i8 %14, ptr %16, align 4, !tbaa !13
  %17 = load i8, ptr %9, align 1, !tbaa !14
  %18 = load ptr, ptr %6, align 8, !tbaa !8
  %19 = getelementptr inbounds nuw %struct.nghttp2_frame_hd, ptr %18, i32 0, i32 3
  store i8 %17, ptr %19, align 1, !tbaa !15
  %20 = load i32, ptr %10, align 4, !tbaa !19
  %21 = load ptr, ptr %6, align 8, !tbaa !8
  %22 = getelementptr inbounds nuw %struct.nghttp2_frame_hd, ptr %21, i32 0, i32 1
  store i32 %20, ptr %22, align 8, !tbaa !16
  %23 = load ptr, ptr %6, align 8, !tbaa !8
  %24 = getelementptr inbounds nuw %struct.nghttp2_frame_hd, ptr %23, i32 0, i32 4
  store i8 0, ptr %24, align 2, !tbaa !17
  ret void
}

; Function Attrs: nounwind uwtable
define hidden void @nghttp2_frame_ping_init(ptr noundef %0, i8 noundef zeroext %1, ptr noundef %2) #0 {
  %4 = alloca ptr, align 8
  %5 = alloca i8, align 1
  %6 = alloca ptr, align 8
  store ptr %0, ptr %4, align 8, !tbaa !8
  store i8 %1, ptr %5, align 1, !tbaa !14
  store ptr %2, ptr %6, align 8, !tbaa !3
  %7 = load ptr, ptr %4, align 8, !tbaa !8
  %8 = getelementptr inbounds nuw %struct.nghttp2_ping, ptr %7, i32 0, i32 0
  %9 = load i8, ptr %5, align 1, !tbaa !14
  call void @nghttp2_frame_hd_init(ptr noundef %8, i64 noundef 8, i8 noundef zeroext 6, i8 noundef zeroext %9, i32 noundef 0)
  %10 = load ptr, ptr %6, align 8, !tbaa !3
  %11 = icmp ne ptr %10, null
  br i1 %11, label %12, label %17

12:                                               ; preds = %3
  %13 = load ptr, ptr %4, align 8, !tbaa !8
  %14 = getelementptr inbounds nuw %struct.nghttp2_ping, ptr %13, i32 0, i32 1
  %15 = getelementptr inbounds [8 x i8], ptr %14, i64 0, i64 0
  %16 = load ptr, ptr %6, align 8, !tbaa !3
  call void @llvm.memcpy.p0.p0.i64(ptr align 8 %15, ptr align 1 %16, i64 8, i1 false)
  br label %21

17:                                               ; preds = %3
  %18 = load ptr, ptr %4, align 8, !tbaa !8
  %19 = getelementptr inbounds nuw %struct.nghttp2_ping, ptr %18, i32 0, i32 1
  %20 = getelementptr inbounds [8 x i8], ptr %19, i64 0, i64 0
  call void @llvm.memset.p0.i64(ptr align 8 %20, i8 0, i64 8, i1 false)
  br label %21

21:                                               ; preds = %17, %12
  ret void
}