; Function Attrs: mustprogress nofree norecurse nosync nounwind willreturn memory(argmem: readwrite) uwtable
define hidden void @nghttp2_frame_ping_init(ptr noundef writeonly captures(none) initializes((0, 15), (16, 24)) %0, i8 noundef zeroext %1, ptr noundef readonly %2) local_unnamed_addr #4 {
  store i64 8, ptr %0, align 8, !tbaa !3
  %4 = getelementptr inbounds nuw i8, ptr %0, i64 12
  store i8 6, ptr %4, align 4, !tbaa !9
  %5 = getelementptr inbounds nuw i8, ptr %0, i64 13
  store i8 %1, ptr %5, align 1, !tbaa !11
  %6 = getelementptr inbounds nuw i8, ptr %0, i64 8
  store i32 0, ptr %6, align 8, !tbaa !12
  %7 = getelementptr inbounds nuw i8, ptr %0, i64 14
  store i8 0, ptr %7, align 2, !tbaa !13
  %.not = icmp eq ptr %2, null
  br i1 %.not, label %10, label %8

8:                                                ; preds = %3
  %9 = load i64, ptr %2, align 1
  br label %10

10:                                               ; preds = %3, %8
  %.sink = phi i64 [ %9, %8 ], [ 0, %3 ]
  %11 = getelementptr inbounds nuw i8, ptr %0, i64 16
  store i64 %.sink, ptr %11, align 8
  ret void
}